; Function Attrs: mustprogress nofree norecurse nosync nounwind willreturn memory(argmem: write) uwtable
define internal noundef zeroext i1 @"_ZNSt17_Function_handlerIFbRKN7rocksdb13ConfigOptionsERKNSt7__cxx1112basic_stringIcSt11char_traitsIcESaIcEEEPKvSD_PS9_ENS0_3$_5EE10_M_managerERSt9_Any_dataRKSI_St18_Manager_operation"(ptr noundef nonnull writeonly align 8 captures(none) dereferenceable(16) %0, ptr noundef nonnull align 8 dereferenceable(16) %1, i32 noundef %2) #21 align 2 personality ptr @__gxx_personality_v0 {
  switch i32 %2, label %"_ZNSt14_Function_base13_Base_managerIN7rocksdb3$_5EE10_M_managerERSt9_Any_dataRKS4_St18_Manager_operation.exit" [
    i32 1, label %"_ZNSt14_Function_base13_Base_managerIN7rocksdb3$_5EE10_M_managerERSt9_Any_dataRKS4_St18_Manager_operation.exit.sink.split"
    i32 0, label %4
  ]

4:                                                ; preds = %3
  br label %"_ZNSt14_Function_base13_Base_managerIN7rocksdb3$_5EE10_M_managerERSt9_Any_dataRKS4_St18_Manager_operation.exit.sink.split"

"_ZNSt14_Function_base13_Base_managerIN7rocksdb3$_5EE10_M_managerERSt9_Any_dataRKS4_St18_Manager_operation.exit.sink.split": ; preds = %3, %4
  %.sink = phi ptr [ null, %4 ], [ %1, %3 ]
  store ptr %.sink, ptr %0, align 8, !tbaa !636
  br label %"_ZNSt14_Function_base13_Base_managerIN7rocksdb3$_5EE10_M_managerERSt9_Any_dataRKS4_St18_Manager_operation.exit"

"_ZNSt14_Function_base13_Base_managerIN7rocksdb3$_5EE10_M_managerERSt9_Any_dataRKS4_St18_Manager_operation.exit": ; preds = %"_ZNSt14_Function_base13_Base_managerIN7rocksdb3$_5EE10_M_managerERSt9_Any_dataRKS4_St18_Manager_operation.exit.sink.split", %3
  ret i1 false
}